; Function Attrs: nounwind uwtable
define dso_local void @_bt_checkpage(ptr noundef readonly captures(none) %0, i32 noundef %1) local_unnamed_addr #0 {
  %3 = icmp slt i32 %1, 0
  br i1 %3, label %4, label %10

4:                                                ; preds = %2
  %5 = load ptr, ptr @LocalBufferBlockPointers, align 8
  %6 = xor i32 %1, -1
  %7 = zext nneg i32 %6 to i64
  %8 = getelementptr inbounds nuw ptr, ptr %5, i64 %7
  %9 = load ptr, ptr %8, align 8
  br label %BufferGetPage.exit

10:                                               ; preds = %2
  %11 = load ptr, ptr @BufferBlocks, align 8
  %12 = add nsw i32 %1, -1
  %13 = sext i32 %12 to i64
  %14 = shl nsw i64 %13, 13
  %15 = getelementptr inbounds nuw i8, ptr %11, i64 %14
  br label %BufferGetPage.exit

BufferGetPage.exit:                               ; preds = %4, %10
  %.0.i.i = phi ptr [ %9, %4 ], [ %15, %10 ]
  %16 = getelementptr i8, ptr %.0.i.i, i64 14
  %.val = load i16, ptr %16, align 2
  %17 = icmp eq i16 %.val, 0
  br i1 %17, label %18, label %27

18:                                               ; preds = %BufferGetPage.exit
  %19 = tail call zeroext i1 @errstart_cold(i32 noundef 21, ptr noundef null) #11
  tail call void @llvm.assume(i1 %19)
  %20 = tail call i32 @errcode(i32 noundef 33557032) #10
  %21 = getelementptr inbounds nuw i8, ptr %0, i64 56
  %22 = load ptr, ptr %21, align 8
  %23 = getelementptr inbounds nuw i8, ptr %22, i64 4
  %24 = tail call i32 @BufferGetBlockNumber(i32 noundef %1) #10
  %25 = tail call i32 (ptr, ...) @errmsg(ptr noundef nonnull @.str.5, ptr noundef nonnull %23, i32 noundef %24) #10
  %26 = tail call i32 (ptr, ...) @errhint(ptr noundef nonnull @.str.6) #10
  tail call void @errfinish(ptr noundef nonnull @.str.1, i32 noundef 813, ptr noundef nonnull @__func__._bt_checkpage) #10
  unreachable

27:                                               ; preds = %BufferGetPage.exit
  %28 = getelementptr i8, ptr %.0.i.i, i64 16
  %.val6 = load i16, ptr %28, align 4
  %29 = getelementptr i8, ptr %.0.i.i, i64 18
  %.val7 = load i16, ptr %29, align 2
  %30 = and i16 %.val7, -256
  %31 = sub i16 %30, %.val6
  %.not = icmp eq i16 %31, 16
  br i1 %.not, label %41, label %32

32:                                               ; preds = %27
  %33 = tail call zeroext i1 @errstart_cold(i32 noundef 21, ptr noundef null) #11
  tail call void @llvm.assume(i1 %33)
  %34 = tail call i32 @errcode(i32 noundef 33557032) #10
  %35 = getelementptr inbounds nuw i8, ptr %0, i64 56
  %36 = load ptr, ptr %35, align 8
  %37 = getelementptr inbounds nuw i8, ptr %36, i64 4
  %38 = tail call i32 @BufferGetBlockNumber(i32 noundef %1) #10
  %39 = tail call i32 (ptr, ...) @errmsg(ptr noundef nonnull @.str.7, ptr noundef nonnull %37, i32 noundef %38) #10
  %40 = tail call i32 (ptr, ...) @errhint(ptr noundef nonnull @.str.6) #10
  tail call void @errfinish(ptr noundef nonnull @.str.1, i32 noundef 824, ptr noundef nonnull @__func__._bt_checkpage) #10
  unreachable

41:                                               ; preds = %27
  ret void
}